; ModuleID = '55/740.cpp'
source_filename = "55/740.cpp"
target datalayout = "e-m:e-p270:32:32-p271:32:32-p272:64:64-i64:64-f80:128-n8:16:32:64-S128"
target triple = "x86_64-pc-linux-gnu"

%"class.std::ios_base::Init" = type { i8 }
%"class.std::basic_istream" = type { i32 (...)**, i64, %"class.std::basic_ios" }
%"class.std::basic_ios" = type { %"class.std::ios_base", %"class.std::basic_ostream"*, i8, i8, %"class.std::basic_streambuf"*, %"class.std::ctype"*, %"class.std::num_put"*, %"class.std::num_get"* }
%"class.std::ios_base" = type { i32 (...)**, i64, i64, i32, i32, i32, %"struct.std::ios_base::_Callback_list"*, %"struct.std::ios_base::_Words", [8 x %"struct.std::ios_base::_Words"], i32, %"struct.std::ios_base::_Words"*, %"class.std::locale" }
%"struct.std::ios_base::_Callback_list" = type { %"struct.std::ios_base::_Callback_list"*, void (i32, %"class.std::ios_base"*, i32)*, i32, i32 }
%"struct.std::ios_base::_Words" = type { i8*, i64 }
%"class.std::locale" = type { %"class.std::locale::_Impl"* }
%"class.std::locale::_Impl" = type { i32, %"class.std::locale::facet"**, i64, %"class.std::locale::facet"**, i8** }
%"class.std::locale::facet" = type <{ i32 (...)**, i32, [4 x i8] }>
%"class.std::basic_ostream" = type { i32 (...)**, %"class.std::basic_ios" }
%"class.std::basic_streambuf" = type { i32 (...)**, i8*, i8*, i8*, i8*, i8*, i8*, %"class.std::locale" }
%"class.std::ctype" = type <{ %"class.std::locale::facet.base", [4 x i8], %struct.__locale_struct*, i8, [7 x i8], i32*, i32*, i16*, i8, [256 x i8], [256 x i8], i8, [6 x i8] }>
%"class.std::locale::facet.base" = type <{ i32 (...)**, i32 }>
%struct.__locale_struct = type { [13 x %struct.__locale_data*], i16*, i32*, i32*, [13 x i8*] }
%struct.__locale_data = type opaque
%"class.std::num_put" = type { %"class.std::locale::facet.base", [4 x i8] }
%"class.std::num_get" = type { %"class.std::locale::facet.base", [4 x i8] }

@_ZStL8__ioinit = internal global %"class.std::ios_base::Init" zeroinitializer, align 1
@__dso_handle = external hidden global i8
@_ZSt3cin = external dso_local global %"class.std::basic_istream", align 8
@_ZSt4cout = external dso_local global %"class.std::basic_ostream", align 8
@llvm.global_ctors = appending global [1 x { i32, void ()*, i8* }] [{ i32, void ()*, i8* } { i32 65535, void ()* @_GLOBAL__sub_I_740.cpp, i8* null }]

; Function Attrs: noinline uwtable
define internal void @__cxx_global_var_init() #0 section ".text.startup" {
  call void @_ZNSt8ios_base4InitC1Ev(%"class.std::ios_base::Init"* @_ZStL8__ioinit)
  %1 = call i32 @__cxa_atexit(void (i8*)* bitcast (void (%"class.std::ios_base::Init"*)* @_ZNSt8ios_base4InitD1Ev to void (i8*)*), i8* getelementptr inbounds (%"class.std::ios_base::Init", %"class.std::ios_base::Init"* @_ZStL8__ioinit, i32 0, i32 0), i8* @__dso_handle) #3
  ret void
}

declare dso_local void @_ZNSt8ios_base4InitC1Ev(%"class.std::ios_base::Init"*) unnamed_addr #1

; Function Attrs: nounwind
declare dso_local void @_ZNSt8ios_base4InitD1Ev(%"class.std::ios_base::Init"*) unnamed_addr #2

; Function Attrs: nounwind
declare dso_local i32 @__cxa_atexit(void (i8*)*, i8*, i8*) #3

; Function Attrs: noinline norecurse uwtable
define dso_local i32 @main(i32 %0, i8** %1) #4 {
  %3 = alloca i32, align 4
  %4 = alloca i32, align 4
  %5 = alloca i8**, align 8
  %6 = alloca i32, align 4
  %7 = alloca i32, align 4
  %8 = alloca i32, align 4
  %9 = alloca [100 x i8], align 16
  %10 = alloca i32, align 4
  %11 = alloca i32, align 4
  %12 = alloca [100 x i8], align 16
  %13 = alloca i32, align 4
  store i32 0, i32* %3, align 4
  store i32 %0, i32* %4, align 4
  store i8** %1, i8*** %5, align 8
  %14 = bitcast [100 x i8]* %9 to i8*
  call void @llvm.memset.p0i8.i64(i8* align 16 %14, i8 0, i64 100, i1 false)
  %15 = call dereferenceable(280) %"class.std::basic_istream"* @_ZNSirsERj(%"class.std::basic_istream"* @_ZSt3cin, i32* dereferenceable(4) %6)
  %16 = getelementptr inbounds [100 x i8], [100 x i8]* %9, i64 0, i64 0
  %17 = call dereferenceable(280) %"class.std::basic_istream"* @_ZStrsIcSt11char_traitsIcEERSt13basic_istreamIT_T0_ES6_PS3_(%"class.std::basic_istream"* dereferenceable(280) %15, i8* %16)
  %18 = call dereferenceable(280) %"class.std::basic_istream"* @_ZNSirsERj(%"class.std::basic_istream"* %17, i32* dereferenceable(4) %7)
  store i32 0, i32* %11, align 4
  %19 = getelementptr inbounds [100 x i8], [100 x i8]* %9, i64 0, i64 0
  %20 = call i64 @strlen(i8* %19) #7
  %21 = trunc i64 %20 to i32
  store i32 %21, i32* %8, align 4
  store i32 0, i32* %10, align 4
  br label %22

22:                                               ; preds = %94, %2
  %23 = load i32, i32* %10, align 4
  %24 = load i32, i32* %8, align 4
  %25 = icmp ult i32 %23, %24
  br i1 %25, label %26, label %97

26:                                               ; preds = %22
  %27 = load i32, i32* %10, align 4
  %28 = sext i32 %27 to i64
  %29 = getelementptr inbounds [100 x i8], [100 x i8]* %9, i64 0, i64 %28
  %30 = load i8, i8* %29, align 1
  %31 = sext i8 %30 to i32
  %32 = icmp sge i32 %31, 97
  br i1 %32, label %33, label %44

33:                                               ; preds = %26
  %34 = load i32, i32* %10, align 4
  %35 = sext i32 %34 to i64
  %36 = getelementptr inbounds [100 x i8], [100 x i8]* %9, i64 0, i64 %35
  %37 = load i8, i8* %36, align 1
  %38 = sext i8 %37 to i32
  %39 = sub nsw i32 %38, 87
  %40 = trunc i32 %39 to i8
  %41 = load i32, i32* %10, align 4
  %42 = sext i32 %41 to i64
  %43 = getelementptr inbounds [100 x i8], [100 x i8]* %9, i64 0, i64 %42
  store i8 %40, i8* %43, align 1
  br label %74

44:                                               ; preds = %26
  %45 = load i32, i32* %10, align 4
  %46 = sext i32 %45 to i64
  %47 = getelementptr inbounds [100 x i8], [100 x i8]* %9, i64 0, i64 %46
  %48 = load i8, i8* %47, align 1
  %49 = sext i8 %48 to i32
  %50 = icmp sge i32 %49, 65
  br i1 %50, label %51, label %62

51:                                               ; preds = %44
  %52 = load i32, i32* %10, align 4
  %53 = sext i32 %52 to i64
  %54 = getelementptr inbounds [100 x i8], [100 x i8]* %9, i64 0, i64 %53
  %55 = load i8, i8* %54, align 1
  %56 = sext i8 %55 to i32
  %57 = sub nsw i32 %56, 55
  %58 = trunc i32 %57 to i8
  %59 = load i32, i32* %10, align 4
  %60 = sext i32 %59 to i64
  %61 = getelementptr inbounds [100 x i8], [100 x i8]* %9, i64 0, i64 %60
  store i8 %58, i8* %61, align 1
  br label %73

62:                                               ; preds = %44
  %63 = load i32, i32* %10, align 4
  %64 = sext i32 %63 to i64
  %65 = getelementptr inbounds [100 x i8], [100 x i8]* %9, i64 0, i64 %64
  %66 = load i8, i8* %65, align 1
  %67 = sext i8 %66 to i32
  %68 = sub nsw i32 %67, 48
  %69 = trunc i32 %68 to i8
  %70 = load i32, i32* %10, align 4
  %71 = sext i32 %70 to i64
  %72 = getelementptr inbounds [100 x i8], [100 x i8]* %9, i64 0, i64 %71
  store i8 %69, i8* %72, align 1
  br label %73

73:                                               ; preds = %62, %51
  br label %74

74:                                               ; preds = %73, %33
  %75 = load i32, i32* %11, align 4
  %76 = uitofp i32 %75 to double
  %77 = load i32, i32* %10, align 4
  %78 = sext i32 %77 to i64
  %79 = getelementptr inbounds [100 x i8], [100 x i8]* %9, i64 0, i64 %78
  %80 = load i8, i8* %79, align 1
  %81 = sext i8 %80 to i32
  %82 = sitofp i32 %81 to double
  %83 = load i32, i32* %6, align 4
  %84 = uitofp i32 %83 to double
  %85 = load i32, i32* %8, align 4
  %86 = load i32, i32* %10, align 4
  %87 = sub i32 %85, %86
  %88 = sub i32 %87, 1
  %89 = uitofp i32 %88 to double
  %90 = call double @pow(double %84, double %89) #3
  %91 = fmul double %82, %90
  %92 = fadd double %76, %91
  %93 = fptosi double %92 to i32
  store i32 %93, i32* %11, align 4
  br label %94

94:                                               ; preds = %74
  %95 = load i32, i32* %10, align 4
  %96 = add nsw i32 %95, 1
  store i32 %96, i32* %10, align 4
  br label %22

97:                                               ; preds = %22
  store i32 0, i32* %13, align 4
  store i32 0, i32* %13, align 4
  br label %98

98:                                               ; preds = %141, %97
  %99 = load i32, i32* %11, align 4
  %100 = icmp ugt i32 %99, 0
  br i1 %100, label %101, label %144

101:                                              ; preds = %98
  %102 = load i32, i32* %11, align 4
  %103 = load i32, i32* %7, align 4
  %104 = urem i32 %102, %103
  %105 = trunc i32 %104 to i8
  %106 = load i32, i32* %13, align 4
  %107 = sext i32 %106 to i64
  %108 = getelementptr inbounds [100 x i8], [100 x i8]* %12, i64 0, i64 %107
  store i8 %105, i8* %108, align 1
  %109 = load i32, i32* %11, align 4
  %110 = load i32, i32* %7, align 4
  %111 = udiv i32 %109, %110
  store i32 %111, i32* %11, align 4
  %112 = load i32, i32* %13, align 4
  %113 = sext i32 %112 to i64
  %114 = getelementptr inbounds [100 x i8], [100 x i8]* %12, i64 0, i64 %113
  %115 = load i8, i8* %114, align 1
  %116 = sext i8 %115 to i32
  %117 = icmp sgt i32 %116, 9
  br i1 %117, label %118, label %129

118:                                              ; preds = %101
  %119 = load i32, i32* %13, align 4
  %120 = sext i32 %119 to i64
  %121 = getelementptr inbounds [100 x i8], [100 x i8]* %12, i64 0, i64 %120
  %122 = load i8, i8* %121, align 1
  %123 = sext i8 %122 to i32
  %124 = add nsw i32 %123, 55
  %125 = trunc i32 %124 to i8
  %126 = load i32, i32* %13, align 4
  %127 = sext i32 %126 to i64
  %128 = getelementptr inbounds [100 x i8], [100 x i8]* %12, i64 0, i64 %127
  store i8 %125, i8* %128, align 1
  br label %140

129:                                              ; preds = %101
  %130 = load i32, i32* %13, align 4
  %131 = sext i32 %130 to i64
  %132 = getelementptr inbounds [100 x i8], [100 x i8]* %12, i64 0, i64 %131
  %133 = load i8, i8* %132, align 1
  %134 = sext i8 %133 to i32
  %135 = add nsw i32 %134, 48
  %136 = trunc i32 %135 to i8
  %137 = load i32, i32* %13, align 4
  %138 = sext i32 %137 to i64
  %139 = getelementptr inbounds [100 x i8], [100 x i8]* %12, i64 0, i64 %138
  store i8 %136, i8* %139, align 1
  br label %140

140:                                              ; preds = %129, %118
  br label %141

141:                                              ; preds = %140
  %142 = load i32, i32* %13, align 4
  %143 = add nsw i32 %142, 1
  store i32 %143, i32* %13, align 4
  br label %98

144:                                              ; preds = %98
  %145 = load i32, i32* %13, align 4
  %146 = icmp eq i32 %145, 0
  br i1 %146, label %147, label %149

147:                                              ; preds = %144
  %148 = call dereferenceable(272) %"class.std::basic_ostream"* @_ZNSolsEi(%"class.std::basic_ostream"* @_ZSt4cout, i32 0)
  br label %165

149:                                              ; preds = %144
  %150 = load i32, i32* %13, align 4
  %151 = sub nsw i32 %150, 1
  store i32 %151, i32* %13, align 4
  br label %152

152:                                              ; preds = %161, %149
  %153 = load i32, i32* %13, align 4
  %154 = icmp sge i32 %153, 0
  br i1 %154, label %155, label %164

155:                                              ; preds = %152
  %156 = load i32, i32* %13, align 4
  %157 = sext i32 %156 to i64
  %158 = getelementptr inbounds [100 x i8], [100 x i8]* %12, i64 0, i64 %157
  %159 = load i8, i8* %158, align 1
  %160 = call dereferenceable(272) %"class.std::basic_ostream"* @_ZStlsISt11char_traitsIcEERSt13basic_ostreamIcT_ES5_c(%"class.std::basic_ostream"* dereferenceable(272) @_ZSt4cout, i8 signext %159)
  br label %161

161:                                              ; preds = %155
  %162 = load i32, i32* %13, align 4
  %163 = add nsw i32 %162, -1
  store i32 %163, i32* %13, align 4
  br label %152

164:                                              ; preds = %152
  br label %165

165:                                              ; preds = %164, %147
  ret i32 0
}

; Function Attrs: argmemonly nounwind willreturn
declare void @llvm.memset.p0i8.i64(i8* nocapture writeonly, i8, i64, i1 immarg) #5

declare dso_local dereferenceable(280) %"class.std::basic_istream"* @_ZStrsIcSt11char_traitsIcEERSt13basic_istreamIT_T0_ES6_PS3_(%"class.std::basic_istream"* dereferenceable(280), i8*) #1

declare dso_local dereferenceable(280) %"class.std::basic_istream"* @_ZNSirsERj(%"class.std::basic_istream"*, i32* dereferenceable(4)) #1

; Function Attrs: nounwind readonly
declare dso_local i64 @strlen(i8*) #6

; Function Attrs: nounwind
declare dso_local double @pow(double, double) #2

declare dso_local dereferenceable(272) %"class.std::basic_ostream"* @_ZNSolsEi(%"class.std::basic_ostream"*, i32) #1

declare dso_local dereferenceable(272) %"class.std::basic_ostream"* @_ZStlsISt11char_traitsIcEERSt13basic_ostreamIcT_ES5_c(%"class.std::basic_ostream"* dereferenceable(272), i8 signext) #1

; Function Attrs: noinline uwtable
define internal void @_GLOBAL__sub_I_740.cpp() #0 section ".text.startup" {
  call void @__cxx_global_var_init()
  ret void
}


!llvm.module.flags = !{!0}
!llvm.ident = !{!1}

!0 = !{i32 1, !"wchar_size", i32 4}
!1 = !{!"clang version 10.0.0-4ubuntu1 "}
