; ModuleID = 'source-C-CXX/54/740.cpp'
source_filename = "source-C-CXX/54/740.cpp"
target datalayout = "e-m:e-p270:32:32-p271:32:32-p272:64:64-i64:64-f80:128-n8:16:32:64-S128"
target triple = "x86_64-pc-linux-gnu"

%"class.std::ios_base::Init" = type { i8 }
%"class.std::basic_istream" = type { i32 (...)**, i64, %"class.std::basic_ios" }
%"class.std::basic_ios" = type { %"class.std::ios_base", %"class.std::basic_ostream"*, i8, i8, %"class.std::basic_streambuf"*, %"class.std::ctype"*, %"class.std::num_put"*, %"class.std::num_get"* }
%"class.std::ios_base" = type { i32 (...)**, i64, i64, i32, i32, i32, %"struct.std::ios_base::_Callback_list"*, %"struct.std::ios_base::_Words", [8 x %"struct.std::ios_base::_Words"], i32, %"struct.std::ios_base::_Words"*, %"class.std::locale" }
%"struct.std::ios_base::_Callback_list" = type { %"struct.std::ios_base::_Callback_list"*, void (i32, %"class.std::ios_base"*, i32)*, i32, i32 }
%"struct.std::ios_base::_Words" = type { i8*, i64 }
%"class.std::locale" = type { %"class.std::locale::_Impl"* }
%"class.std::locale::_Impl" = type { i32, %"class.std::locale::facet"**, i64, %"class.std::locale::facet"**, i8** }
%"class.std::locale::facet" = type <{ i32 (...)**, i32, [4 x i8] }>
%"class.std::basic_ostream" = type { i32 (...)**, %"class.std::basic_ios" }
%"class.std::basic_streambuf" = type { i32 (...)**, i8*, i8*, i8*, i8*, i8*, i8*, %"class.std::locale" }
%"class.std::ctype" = type <{ %"class.std::locale::facet.base", [4 x i8], %struct.__locale_struct*, i8, [7 x i8], i32*, i32*, i16*, i8, [256 x i8], [256 x i8], i8, [6 x i8] }>
%"class.std::locale::facet.base" = type <{ i32 (...)**, i32 }>
%struct.__locale_struct = type { [13 x %struct.__locale_data*], i16*, i32*, i32*, [13 x i8*] }
%struct.__locale_data = type opaque
%"class.std::num_put" = type { %"class.std::locale::facet.base", [4 x i8] }
%"class.std::num_get" = type { %"class.std::locale::facet.base", [4 x i8] }

@_ZStL8__ioinit = internal global %"class.std::ios_base::Init" zeroinitializer, align 1
@__dso_handle = external hidden global i8
@_ZSt3cin = external global %"class.std::basic_istream", align 8
@_ZSt4cout = external global %"class.std::basic_ostream", align 8
@llvm.global_ctors = appending global [1 x { i32, void ()*, i8* }] [{ i32, void ()*, i8* } { i32 65535, void ()* @_GLOBAL__sub_I_740.cpp, i8* null }]

declare void @_ZNSt8ios_base4InitC1Ev(%"class.std::ios_base::Init"* nonnull align 1 dereferenceable(1)) unnamed_addr #0

; Function Attrs: nounwind
declare void @_ZNSt8ios_base4InitD1Ev(%"class.std::ios_base::Init"* nonnull align 1 dereferenceable(1)) unnamed_addr #1

; Function Attrs: nofree nounwind
declare i32 @__cxa_atexit(void (i8*)*, i8*, i8*) local_unnamed_addr #2

; Function Attrs: mustprogress norecurse sspstrong uwtable
define dso_local i32 @main(i32 %0, i8** nocapture readnone %1) local_unnamed_addr #3 {
  %3 = alloca i8, align 1
  %4 = alloca i32, align 4
  %5 = alloca i32, align 4
  %6 = alloca [100 x i8], align 16
  %7 = alloca [100 x i8], align 16
  %8 = bitcast i32* %4 to i8*
  call void @llvm.lifetime.start.p0i8(i64 4, i8* nonnull %8) #9
  %9 = bitcast i32* %5 to i8*
  call void @llvm.lifetime.start.p0i8(i64 4, i8* nonnull %9) #9
  %10 = getelementptr inbounds [100 x i8], [100 x i8]* %6, i64 0, i64 0
  call void @llvm.lifetime.start.p0i8(i64 100, i8* nonnull %10) #9
  call void @llvm.memset.p0i8.i64(i8* noundef nonnull align 16 dereferenceable(100) %10, i8 0, i64 100, i1 false)
  %11 = call nonnull align 8 dereferenceable(16) %"class.std::basic_istream"* @_ZNSi10_M_extractIjEERSiRT_(%"class.std::basic_istream"* nonnull align 8 dereferenceable(16) @_ZSt3cin, i32* nonnull align 4 dereferenceable(4) %4)
  call void @_ZSt17__istream_extractRSiPcl(%"class.std::basic_istream"* nonnull align 8 dereferenceable(16) %11, i8* nonnull %10, i64 100)
  %12 = call nonnull align 8 dereferenceable(16) %"class.std::basic_istream"* @_ZNSi10_M_extractIjEERSiRT_(%"class.std::basic_istream"* nonnull align 8 dereferenceable(16) %11, i32* nonnull align 4 dereferenceable(4) %5)
  %13 = call i64 @strlen(i8* noundef nonnull %10) #10
  %14 = trunc i64 %13 to i32
  %15 = icmp eq i32 %14, 0
  br i1 %15, label %16, label %18

16:                                               ; preds = %2
  %17 = getelementptr inbounds [100 x i8], [100 x i8]* %7, i64 0, i64 0
  call void @llvm.lifetime.start.p0i8(i64 100, i8* nonnull %17) #9
  br label %68

18:                                               ; preds = %2
  %19 = and i64 %13, 4294967295
  br label %20

20:                                               ; preds = %18, %20
  %21 = phi i64 [ 0, %18 ], [ %42, %20 ]
  %22 = phi i32 [ 0, %18 ], [ %41, %20 ]
  %23 = phi i32 [ 0, %18 ], [ %43, %20 ]
  %24 = getelementptr inbounds [100 x i8], [100 x i8]* %6, i64 0, i64 %21
  %25 = load i8, i8* %24, align 1, !tbaa !5
  %26 = icmp sgt i8 %25, 96
  %27 = icmp sgt i8 %25, 64
  %28 = select i1 %27, i8 -55, i8 -48
  %29 = select i1 %26, i8 -87, i8 %28
  %30 = add i8 %25, %29
  store i8 %30, i8* %24, align 1, !tbaa !5
  %31 = uitofp i32 %22 to double
  %32 = sitofp i8 %30 to double
  %33 = load i32, i32* %4, align 4, !tbaa !8
  %34 = uitofp i32 %33 to double
  %35 = xor i32 %23, -1
  %36 = add i32 %35, %14
  %37 = uitofp i32 %36 to double
  %38 = call double @pow(double %34, double %37) #9
  %39 = fmul double %38, %32
  %40 = fadd double %39, %31
  %41 = fptosi double %40 to i32
  %42 = add nuw nsw i64 %21, 1
  %43 = add nuw nsw i32 %23, 1
  %44 = icmp eq i64 %42, %19
  br i1 %44, label %45, label %20, !llvm.loop !10

45:                                               ; preds = %20
  %46 = getelementptr inbounds [100 x i8], [100 x i8]* %7, i64 0, i64 0
  call void @llvm.lifetime.start.p0i8(i64 100, i8* nonnull %46) #9
  %47 = load i32, i32* %5, align 4
  %48 = icmp eq i32 %41, 0
  br i1 %48, label %68, label %49

49:                                               ; preds = %45, %49
  %50 = phi i64 [ %59, %49 ], [ 0, %45 ]
  %51 = phi i32 [ %55, %49 ], [ %41, %45 ]
  %52 = urem i32 %51, %47
  %53 = trunc i32 %52 to i8
  %54 = getelementptr inbounds [100 x i8], [100 x i8]* %7, i64 0, i64 %50
  %55 = udiv i32 %51, %47
  %56 = icmp sgt i8 %53, 9
  %57 = select i1 %56, i8 55, i8 48
  %58 = add i8 %57, %53
  store i8 %58, i8* %54, align 1, !tbaa !5
  %59 = add nuw i64 %50, 1
  %60 = icmp ugt i32 %47, %51
  br i1 %60, label %61, label %49, !llvm.loop !12

61:                                               ; preds = %49
  %62 = trunc i64 %59 to i32
  %63 = icmp eq i32 %62, 0
  br i1 %63, label %68, label %64

64:                                               ; preds = %61
  %65 = icmp sgt i32 %62, 0
  br i1 %65, label %66, label %80

66:                                               ; preds = %64
  %67 = and i64 %59, 4294967295
  br label %70

68:                                               ; preds = %16, %45, %61
  %69 = call nonnull align 8 dereferenceable(8) %"class.std::basic_ostream"* @_ZNSolsEi(%"class.std::basic_ostream"* nonnull align 8 dereferenceable(8) @_ZSt4cout, i32 0)
  br label %80

70:                                               ; preds = %66, %70
  %71 = phi i64 [ %67, %66 ], [ %79, %70 ]
  %72 = phi i32 [ %62, %66 ], [ %73, %70 ]
  %73 = add nsw i32 %72, -1
  %74 = zext i32 %73 to i64
  %75 = getelementptr inbounds [100 x i8], [100 x i8]* %7, i64 0, i64 %74
  %76 = load i8, i8* %75, align 1, !tbaa !5
  call void @llvm.lifetime.start.p0i8(i64 1, i8* nonnull %3)
  store i8 %76, i8* %3, align 1, !tbaa !5
  %77 = call nonnull align 8 dereferenceable(8) %"class.std::basic_ostream"* @_ZSt16__ostream_insertIcSt11char_traitsIcEERSt13basic_ostreamIT_T0_ES6_PKS3_l(%"class.std::basic_ostream"* nonnull align 8 dereferenceable(8) @_ZSt4cout, i8* nonnull %3, i64 1)
  call void @llvm.lifetime.end.p0i8(i64 1, i8* nonnull %3)
  %78 = icmp sgt i64 %71, 1
  %79 = add nsw i64 %71, -1
  br i1 %78, label %70, label %80, !llvm.loop !13

80:                                               ; preds = %70, %64, %68
  %81 = getelementptr inbounds [100 x i8], [100 x i8]* %7, i64 0, i64 0
  call void @llvm.lifetime.end.p0i8(i64 100, i8* nonnull %81) #9
  call void @llvm.lifetime.end.p0i8(i64 100, i8* nonnull %10) #9
  call void @llvm.lifetime.end.p0i8(i64 4, i8* nonnull %9) #9
  call void @llvm.lifetime.end.p0i8(i64 4, i8* nonnull %8) #9
  ret i32 0
}

; Function Attrs: argmemonly mustprogress nofree nosync nounwind willreturn
declare void @llvm.lifetime.start.p0i8(i64 immarg, i8* nocapture) #4

; Function Attrs: argmemonly mustprogress nofree nounwind willreturn writeonly
declare void @llvm.memset.p0i8.i64(i8* nocapture writeonly, i8, i64, i1 immarg) #5

; Function Attrs: argmemonly mustprogress nofree nounwind readonly willreturn
declare i64 @strlen(i8* nocapture) local_unnamed_addr #6

; Function Attrs: mustprogress nofree nounwind willreturn
declare double @pow(double, double) local_unnamed_addr #7

declare nonnull align 8 dereferenceable(8) %"class.std::basic_ostream"* @_ZNSolsEi(%"class.std::basic_ostream"* nonnull align 8 dereferenceable(8), i32) local_unnamed_addr #0

; Function Attrs: argmemonly mustprogress nofree nosync nounwind willreturn
declare void @llvm.lifetime.end.p0i8(i64 immarg, i8* nocapture) #4

declare nonnull align 8 dereferenceable(16) %"class.std::basic_istream"* @_ZNSi10_M_extractIjEERSiRT_(%"class.std::basic_istream"* nonnull align 8 dereferenceable(16), i32* nonnull align 4 dereferenceable(4)) local_unnamed_addr #0

declare void @_ZSt17__istream_extractRSiPcl(%"class.std::basic_istream"* nonnull align 8 dereferenceable(16), i8*, i64) local_unnamed_addr #0

declare nonnull align 8 dereferenceable(8) %"class.std::basic_ostream"* @_ZSt16__ostream_insertIcSt11char_traitsIcEERSt13basic_ostreamIT_T0_ES6_PKS3_l(%"class.std::basic_ostream"* nonnull align 8 dereferenceable(8), i8*, i64) local_unnamed_addr #0

; Function Attrs: sspstrong uwtable
define internal void @_GLOBAL__sub_I_740.cpp() #8 section ".text.startup" {
  tail call void @_ZNSt8ios_base4InitC1Ev(%"class.std::ios_base::Init"* nonnull align 1 dereferenceable(1) @_ZStL8__ioinit)
  %1 = tail call i32 @__cxa_atexit(void (i8*)* bitcast (void (%"class.std::ios_base::Init"*)* @_ZNSt8ios_base4InitD1Ev to void (i8*)*), i8* getelementptr inbounds (%"class.std::ios_base::Init", %"class.std::ios_base::Init"* @_ZStL8__ioinit, i64 0, i32 0), i8* nonnull @__dso_handle) #9
  ret void
}


!llvm.module.flags = !{!0, !1, !2, !3}
!llvm.ident = !{!4}

!0 = !{i32 1, !"wchar_size", i32 4}
!1 = !{i32 7, !"PIC Level", i32 2}
!2 = !{i32 7, !"PIE Level", i32 2}
!3 = !{i32 7, !"uwtable", i32 1}
!4 = !{!"clang version 13.0.0"}
!5 = !{!6, !6, i64 0}
!6 = !{!"omnipotent char", !7, i64 0}
!7 = !{!"Simple C++ TBAA"}
!8 = !{!9, !9, i64 0}
!9 = !{!"int", !6, i64 0}
!10 = distinct !{!10, !11}
!11 = !{!"llvm.loop.mustprogress"}
!12 = distinct !{!12, !11}
!13 = distinct !{!13, !11}
